; Function Attrs: mustprogress nofree norecurse nosync nounwind willreturn memory(read, argmem: readwrite, inaccessiblemem: none) uwtable
define internal noundef i32 @H5T__vlen_mem_str_isnull(ptr readnone captures(none) %0, ptr noundef readonly captures(none) %1, ptr noundef writeonly captures(none) %2) #6 {
  %4 = load i8, ptr @H5T_init_g, align 1, !tbaa !3, !range !7, !noundef !8
  %5 = trunc nuw i8 %4 to i1
  %6 = load i8, ptr @H5_libterm_g, align 1, !range !7
  %7 = trunc nuw i8 %6 to i1
  %8 = xor i1 %7, true
  %9 = select i1 %5, i1 true, i1 %8
  br i1 %9, label %10, label %13, !prof !9

10:                                               ; preds = %3
  %.0.copyload = load ptr, ptr %1, align 1
  %11 = icmp eq ptr %.0.copyload, null
  %12 = zext i1 %11 to i8
  store i8 %12, ptr %2, align 1, !tbaa !3
  br label %13

13:                                               ; preds = %10, %3
  ret i32 0
}